HI-TECH Software C Compiler 

Linker command line:

--edf=C:\Program Files (x86)\HI-TECH Software\PICC\9.83\dat\en_msgs.txt -cs \
  -h+dist/default/production\PasswordLock_Simple_pic16f684pro.X.production.sym \
  -z -Q16F684 -ol.obj \
  -Mdist/default/production/PasswordLock_Simple_pic16f684pro.X.production.map \
  -E1 -ACONST=00h-0FFhx8 -ACODE=00h-07FFh -ASTRCODE=00h-07FFh \
  -AENTRY=00h-0FFhx8 -ASTRING=00h-0FFhx8 -ABANK0=020h-06Fh \
  -ABANK1=0A0h-0BFh -ARAM=020h-06Fh,0A0h-0BFh -AABS1=020h-07Fh,0A0h-0BFh \
  -ACOMMON=070h-07Fh -ASFR0=00h-01Fh -ASFR1=080h-09Fh \
  -preset_vec=00h,intentry,init,end_init -ppowerup=CODE -pfunctab=CODE \
  -ACONFIG=02007h-02007h -pconfig=CONFIG -DCONFIG=2 -AIDLOC=02000h-02003h \
  -pidloc=IDLOC -DIDLOC=2 -AEEDATA=00h-0FFh/02100h -peeprom_data=EEDATA \
  -DEEDATA=2 -DCODE=2 -DSTRCODE=2 -DSTRING=2 -DCONST=2 -DENTRY=2 -k \
  C:\Users\YYJ-2\AppData\Local\Temp\sbk8.obj \
  dist/default/production\PasswordLock_Simple_pic16f684pro.X.production.obj 

Object code version is 3.10

Machine type is 16F684



                Name                               Link     Load   Length Selector   Space Scale
C:\Users\YYJ-2\AppData\Local\Temp\sbk8.obj
                end_init                              0        0        1        0       0
dist/default/production\PasswordLock_Simple_pic16f684pro.X.production.obj
                config                             2007     2007        1     400E       0
                text416                             5E3      5E3        5      BC6       0
                text415                             5E8      5E8        6      BD0       0
                text414                             5EE      5EE        6      BDC       0
                text413                             74B      74B       B5      E96       0
                text412                             635      635       11      C6A       0
                text411                             5FC      5FC        A      BF8       0
                text410                             658      658       14      CB0       0
                text409                             606      606        B      C0C       0
                text408                             6A3      6A3       1E      D46       0
                text407                             628      628        D      C50       0
                text406                             61C      61C        C      C38       0
                text405                             711      711       3A      E22       0
                text404                             646      646       12      C8C       0
                text403                             66C      66C       1A      CD8       0
                text402                             5E1      5E1        2      BC2       0
                text401                             6E3      6E3       2E      DC6       0
                text400                             686      686       1D      D0C       0
                maintext                            6C1      6C1       22      D82       0
                cstackCOMMON                         70       70        E       70       1
                clrtext                             5F4      5F4        8      BE8       0
                dataBANK0                            31       31        3       20       1
                bssBANK0                             20       20       11       20       1
                cinit                               611      611        B      C22       0

TOTAL           Name                               Link     Load   Length     Space
        CLASS   CONST          

        CLASS   CODE           
                end_init                              0        0        1         0
                text416                             5E3      5E3        5         0
                text415                             5E8      5E8        6         0
                text414                             5EE      5EE        6         0
                text413                             74B      74B       B5         0
                text412                             635      635       11         0
                text411                             5FC      5FC        A         0
                text410                             658      658       14         0
                text409                             606      606        B         0
                text408                             6A3      6A3       1E         0
                text407                             628      628        D         0
                text406                             61C      61C        C         0
                text405                             711      711       3A         0
                text404                             646      646       12         0
                text403                             66C      66C       1A         0
                text402                             5E1      5E1        2         0
                text401                             6E3      6E3       2E         0
                text400                             686      686       1D         0
                maintext                            6C1      6C1       22         0
                clrtext                             5F4      5F4        8         0
                cinit                               611      611        B         0

        CLASS   STRCODE        

        CLASS   ENTRY          

        CLASS   STRING         

        CLASS   BANK0          
                dataBANK0                            31       31        3         1
                bssBANK0                             20       20       11         1

        CLASS   BANK1          

        CLASS   RAM            

        CLASS   ABS1           
                abs_s1                               7E       7E        2         1

        CLASS   COMMON         
                cstackCOMMON                         70       70        E         1

        CLASS   SFR0           

        CLASS   SFR1           

        CLASS   CONFIG         
                config                             2007     2007        1         0

        CLASS   IDLOC          

        CLASS   EEDATA         



SEGMENTS        Name                           Load    Length   Top    Selector   Space  Class     Delta

                reset_vec                      000000  000001  000001         0       0  CODE        2
                bssBANK0                       000020  000014  000034        20       1  BANK0       1
                cstackCOMMON                   000070  00000E  00007E        70       1  COMMON      1
                text402                        0005E1  000002  0005E3       BC2       0  CODE        2
                text416                        0005E3  000005  0005E8       BC6       0  CODE        2
                text415                        0005E8  000006  0005EE       BD0       0  CODE        2
                text414                        0005EE  000006  0005F4       BDC       0  CODE        2
                clrtext                        0005F4  000008  0005FC       BE8       0  CODE        2
                text411                        0005FC  00000A  000606       BF8       0  CODE        2
                text409                        000606  00000B  000611       C0C       0  CODE        2
                cinit                          000611  00000B  00061C       C22       0  CODE        2
                text406                        00061C  00000C  000628       C38       0  CODE        2
                text407                        000628  00000D  000635       C50       0  CODE        2
                text412                        000635  000011  000646       C6A       0  CODE        2
                text404                        000646  000012  000658       C8C       0  CODE        2
                text410                        000658  000014  00066C       CB0       0  CODE        2
                text403                        00066C  00001A  000686       CD8       0  CODE        2
                text400                        000686  00001D  0006A3       D0C       0  CODE        2
                text408                        0006A3  00001E  0006C1       D46       0  CODE        2
                maintext                       0006C1  000022  0006E3       D82       0  CODE        2
                text401                        0006E3  00002E  000711       DC6       0  CODE        2
                text405                        000711  00003A  00074B       E22       0  CODE        2
                text413                        00074B  0000B5  000800       E96       0  CODE        2
                config                         002007  000001  002008      400E       0  CONFIG      2


UNUSED ADDRESS RANGES

        Name                Unused          Largest block    Delta
        BANK0            0034-006F             3C           1
        BANK1            00A0-00BF             20           1
        CODE             0001-05E0            5E0           2
        CONST            0001-05E0            100           2
        EEDATA           2100-21FF            100           2
        ENTRY            0001-05E0            100           2
        IDLOC            2000-2003              4           2
        RAM              0034-006F             3C           1
                         00A0-00BF             20
        SFR0             0000-001F             20           1
        SFR1             0080-009F             20           1
        STRCODE          0001-05E0            5E0           2
        STRING           0001-05E0            100           2

                                  Symbol Table

??_ADC_Init                            cstackCOMMON 0070
??_BUZZER_Init                         cstackCOMMON 0070
??_BUZZER_KeySound                     cstackCOMMON 0070
??_BackLight_Fun                       cstackCOMMON 0070
??_Buzzer_Sound                        cstackCOMMON 0073
??_I2C_Delay                           cstackCOMMON 0070
??_I2C_Receive8Bit                     cstackCOMMON 0071
??_I2C_Respond                         cstackCOMMON 0071
??_I2C_Simple_Read_From_Device         cstackCOMMON 0077
??_I2C_Start                           cstackCOMMON 0071
??_I2C_Stop                            cstackCOMMON 0071
??_LED_Init                            cstackCOMMON 0070
??_Motor_Init                          cstackCOMMON 0070
??_RunCheck_Mode                       cstackCOMMON 0072
??_SC12B_Init_Function                 cstackCOMMON 0070
??_SendByteAndGetNACK                  cstackCOMMON 0071
??_System_Init                         cstackCOMMON 0070
??_main                                cstackCOMMON 007C
?_ADC_Init                             cstackCOMMON 0070
?_BUZZER_Init                          cstackCOMMON 0070
?_BUZZER_KeySound                      cstackCOMMON 0070
?_BackLight_Fun                        cstackCOMMON 0070
?_Buzzer_Sound                         cstackCOMMON 0070
?_I2C_Delay                            cstackCOMMON 0070
?_I2C_Receive8Bit                      cstackCOMMON 0070
?_I2C_Respond                          cstackCOMMON 0070
?_I2C_Simple_Read_From_Device          cstackCOMMON 0075
?_I2C_Start                            cstackCOMMON 0070
?_I2C_Stop                             cstackCOMMON 0070
?_LED_Init                             cstackCOMMON 0070
?_Motor_Init                           cstackCOMMON 0070
?_RunCheck_Mode                        cstackCOMMON 0070
?_SC12B_Init_Function                  cstackCOMMON 0070
?_SendByteAndGetNACK                   cstackCOMMON 0070
?_System_Init                          cstackCOMMON 0070
?_main                                 cstackCOMMON 0070
BUZZER_KeySound@m                      cstackCOMMON 0071
Buzzer_Sound@i                         cstackCOMMON 0076
I2C_Delay@a                            cstackCOMMON 0070
I2C_Receive8Bit@buffer                 cstackCOMMON 0073
I2C_Receive8Bit@i                      cstackCOMMON 0072
I2C_Respond@ACKSignal                  cstackCOMMON 0071
I2C_Simple_Read_From_Device@deviceAddr cstackCOMMON 0079
I2C_Simple_Read_From_Device@i          cstackCOMMON 007B
I2C_Simple_Read_From_Device@len        cstackCOMMON 0076
I2C_Simple_Read_From_Device@p          cstackCOMMON 007A
I2C_Simple_Read_From_Device@target     cstackCOMMON 0075
RunCheck_Mode@dat                      cstackCOMMON 0070
RunCheck_Mode@k0                       dataBANK0    0031
RunCheck_Mode@k1                       dataBANK0    0032
RunCheck_Mode@k2                       dataBANK0    0033
RunCheck_Mode@key                      bssBANK0     0029
RunCheck_Mode@number                   bssBANK0     002A
RunCheck_Mode@spec                     bssBANK0     002B
SendByteAndGetNACK@dataToSend          cstackCOMMON 0073
SendByteAndGetNACK@i                   cstackCOMMON 0074
_ADCON0                                (abs)        001F
_ADC_Init                              text411      05FC
_ANSELbits                             (abs)        0091
_BUZZER_Init                           text416      05E3
_BUZZER_KeySound                       text408      06A3
_BackLight_Fun                         text412      0635
_Buzzer_Sound                          text400      0686
_CMCON0                                (abs)        0019
_I2C_Delay                             text414      05EE
_I2C_Receive8Bit                       text403      066C
_I2C_Respond                           text404      0646
_I2C_Simple_Read_From_Device           text401      06E3
_I2C_Start                             text407      0628
_I2C_Stop                              text406      061C
_LED_Init                              text410      0658
_Motor_Init                            text409      0606
_PORTAbits                             (abs)        0005
_PORTCbits                             (abs)        0007
_RunCheck_Mode                         text413      074B
_SC12B_Init_Function                   text415      05E8
_SC_Data                               bssBANK0     002F
_SendByteAndGetNACK                    text405      0711
_System_Init                           text402      05E1
_TRISAbits                             (abs)        0085
_TRISCbits                             (abs)        0087
_WPU                                   (abs)        0095
__Habs1                                abs1         0000
__Hbank0                               bank0        0000
__Hbank1                               bank1        0000
__HbssBANK0                            bssBANK0     0000
__Hcinit                               cinit        0000
__Hclrtext                             clrtext      0000
__Hcode                                code         0000
__Hcommon                              common       0000
__Hconfig                              config       2008
__HcstackCOMMON                        cstackCOMMON 0000
__HdataBANK0                           dataBANK0    0000
__Heeprom_data                         eeprom_data  0000
__Hend_init                            end_init     0001
__Hfunctab                             functab      0000
__HidataBANK0                          idataBANK0   0000
__Hidloc                               idloc        0000
__Hinit                                init         0000
__Hintentry                            intentry     0000
__Hmaintext                            maintext     0000
__Hpa_nodes                            pa_nodes     0000
__Hpowerup                             powerup      0000
__Hram                                 ram          0000
__Hreset_vec                           reset_vec    0000
__Hsfr0                                sfr0         0000
__Hsfr1                                sfr1         0000
__Hstrings                             strings      0000
__Htext                                text         0000
__Labs1                                abs1         0000
__Lbank0                               bank0        0000
__Lbank1                               bank1        0000
__LbssBANK0                            bssBANK0     0000
__Lcinit                               cinit        0000
__Lclrtext                             clrtext      0000
__Lcode                                code         0000
__Lcommon                              common       0000
__Lconfig                              config       2007
__LcstackCOMMON                        cstackCOMMON 0000
__LdataBANK0                           dataBANK0    0000
__Leeprom_data                         eeprom_data  0000
__Lend_init                            end_init     0000
__Lfunctab                             functab      0000
__LidataBANK0                          idataBANK0   0000
__Lidloc                               idloc        0000
__Linit                                init         0000
__Lintentry                            intentry     0000
__Lmaintext                            maintext     0000
__Lpa_nodes                            pa_nodes     0000
__Lpowerup                             powerup      0000
__Lram                                 ram          0000
__Lreset_vec                           reset_vec    0000
__Lsfr0                                sfr0         0000
__Lsfr1                                sfr1         0000
__Lstrings                             strings      0000
__Ltext                                text         0000
__S0                                   (abs)        2008
__S1                                   (abs)        007E
__S2                                   (abs)        0000
__end_of_ADC_Init                      text411      0606
__end_of_BUZZER_Init                   text416      05E8
__end_of_BUZZER_KeySound               text408      06C1
__end_of_BackLight_Fun                 text412      0646
__end_of_Buzzer_Sound                  text400      06A3
__end_of_I2C_Delay                     text414      05F4
__end_of_I2C_Receive8Bit               text403      0686
__end_of_I2C_Respond                   text404      0658
__end_of_I2C_Simple_Read_From_Device   text401      0711
__end_of_I2C_Start                     text407      0635
__end_of_I2C_Stop                      text406      0628
__end_of_LED_Init                      text410      066C
__end_of_Motor_Init                    text409      0611
__end_of_RunCheck_Mode                 text413      0800
__end_of_SC12B_Init_Function           text415      05EE
__end_of_SendByteAndGetNACK            text405      074B
__end_of_System_Init                   text402      05E3
__end_of_main                          maintext     06E3
__pbssBANK0                            bssBANK0     0020
__pcstackCOMMON                        cstackCOMMON 0070
__pdataBANK0                           dataBANK0    0031
__pidataBANK0                          idataBANK0   0000
__pmaintext                            maintext     06C1
__ptext400                             text400      0686
__ptext401                             text401      06E3
__ptext402                             text402      05E1
__ptext403                             text403      066C
__ptext404                             text404      0646
__ptext405                             text405      0711
__ptext406                             text406      061C
__ptext407                             text407      0628
__ptext408                             text408      06A3
__ptext409                             text409      0606
__ptext410                             text410      0658
__ptext411                             text411      05FC
__ptext412                             text412      0635
__ptext413                             text413      074B
__ptext414                             text414      05EE
__ptext415                             text415      05E8
__ptext416                             text416      05E3
__ptext417                             text417      0000
__size_of_ADC_Init                     (abs)        0000
__size_of_BUZZER_Init                  (abs)        0000
__size_of_BUZZER_KeySound              (abs)        0000
__size_of_BackLight_Fun                (abs)        0000
__size_of_Buzzer_Sound                 (abs)        0000
__size_of_I2C_Delay                    (abs)        0000
__size_of_I2C_Receive8Bit              (abs)        0000
__size_of_I2C_Respond                  (abs)        0000
__size_of_I2C_Simple_Read_From_Device  (abs)        0000
__size_of_I2C_Start                    (abs)        0000
__size_of_I2C_Stop                     (abs)        0000
__size_of_LED_Init                     (abs)        0000
__size_of_Motor_Init                   (abs)        0000
__size_of_RunCheck_Mode                (abs)        0000
__size_of_SC12B_Init_Function          (abs)        0000
__size_of_SendByteAndGetNACK           (abs)        0000
__size_of_System_Init                  (abs)        0000
__size_of_main                         (abs)        0000
_exit                                  init         0000
_main                                  maintext     06C1
_n0                                    bssBANK0     002C
_n1                                    bssBANK0     002D
_n2                                    bssBANK0     002E
_run_t                                 bssBANK0     0020
btemp                                  (abs)        007E
clear_ram                              clrtext      05F4
end_of_initialization                  cinit        061A
intlevel0                              functab      0000
intlevel1                              functab      0000
intlevel2                              functab      0000
intlevel3                              functab      0000
intlevel4                              functab      0000
intlevel5                              functab      0000
l1114                                                   
l1119                                                   
l1122                                                   
l1125                                                   
l1137                                                   
l1142                                                   
l2431                                                   
l3552                                                   
l3555                                                   
l4121                                                   
l553                                                    
l558                                                    
l6164                                                   
l6166                                                   
l6168                                                   
l6176                                                   
l6178                                                   
l6184                                                   
l6186                                                   
l6188                                                   
l6190                                                   
l6192                                                   
l6194                                                   
l6196                                                   
l6202                                                   
l6204                                                   
l6206                                                   
l6212                                                   
l6218                                                   
l6224                                                   
l6230                                                   
l6276                                                   
l6280                                                   
l6282                                                   
l6284                                                   
l6286                                                   
l6288                                                   
l6290                                                   
l6324                                                   
l6326                                                   
l6328                                                   
l6334                                                   
l6336                                                   
l6338                                                   
l6340                                                   
l6342                                                   
l6344                                                   
l6346                                                   
l6348                                                   
l6350                                                   
l6352                                                   
l6354                                                   
l6356                                                   
l6358                                                   
l6360                                                   
l6362                                                   
l6364                                                   
l6366                                                   
l6368                                                   
l6370                                                   
l6372                                                   
l6374                                                   
l6376                                                   
l6378                                                   
l6380                                                   
l6382                                                   
l6384                                                   
l6386                                                   
l6388                                                   
l6390                                                   
l6392                                                   
l6400                                                   
l6402                                                   
l6404                                                   
l6406                                                   
l6408                                                   
l6410                                                   
l6412                                                   
l6414                                                   
l6416                                                   
l6418                                                   
l6420                                                   
l6422                                                   
l6428                                                   
l6430                                                   
l6432                                                   
l6434                                                   
l6436                                                   
l6438                                                   
l6440                                                   
l6442                                                   
l6444                                                   
l6446                                                   
l6448                                                   
l6452                                                   
l6458                                                   
l6462                                                   
l6464                                                   
l6466                                                   
l6468                                                   
l6470                                                   
l6472                                                   
l6474                                                   
l6476                                                   
l6478                                                   
l6486                                                   
l6488                                                   
l6490                                                   
l6492                                                   
l6494                                                   
l6500                                                   
l6502                                                   
l6504                                                   
l6506                                                   
l6508                                                   
l6512                                                   
l6520                                                   
l6522                                                   
l6534                                                   
l6538                                                   
l6540                                                   
l6542                                                   
l6544                                                   
l6550                                                   
l6552                                                   
l6554                                                   
l6556                                                   
l6558                                                   
l6560                                                   
l6562                                                   
l6564                                                   
l6572                                                   
l6576                                                   
l6580                                                   
main@KeyValue                          cstackCOMMON 007C
reset_vec                              reset_vec    0000
start                                  init         0000
start_initialization                   cinit        0611
wtemp0                                 (abs)        007E
